target datalayout = "e-m:e-p270:32:32-p271:32:32-p272:64:64-i64:64-i128:128-f80:128-n8:16:32:64-S128"
target triple = "x86_64-pc-linux-gnu"

%struct.passwd = type { ptr, ptr, i32, i32, ptr, ptr, ptr }

@.str = private unnamed_addr constant [5 x i8] c"HOME\00", align 1
@.str.1 = private unnamed_addr constant [11 x i8] c"%s%s.netrc\00", align 1
@.str.2 = private unnamed_addr constant [2 x i8] c"/\00", align 1
@Curl_cfree = external global ptr, align 8

; Function Attrs: nounwind uwtable
define dso_local i32 @Curl_parsenetrc(ptr noundef %0, ptr noundef %1, ptr noundef %2, ptr noundef %3) #0 {
  %5 = alloca i32, align 4
  %6 = alloca ptr, align 8
  %7 = alloca ptr, align 8
  %8 = alloca ptr, align 8
  %9 = alloca ptr, align 8
  %10 = alloca i32, align 4
  %11 = alloca ptr, align 8
  %12 = alloca [1024 x i8], align 16
  %13 = alloca ptr, align 8
  %14 = alloca ptr, align 8
  %15 = alloca %struct.passwd, align 8
  %16 = alloca ptr, align 8
  store ptr %0, ptr %6, align 8
  store ptr %1, ptr %7, align 8
  store ptr %2, ptr %8, align 8
  store ptr %3, ptr %9, align 8
  store i32 1, ptr %10, align 4
  store ptr null, ptr %11, align 8
  %17 = load ptr, ptr %9, align 8
  %18 = icmp ne ptr %17, null
  br i1 %18, label %60, label %19

19:                                               ; preds = %4
  store ptr null, ptr %13, align 8
  %20 = call ptr @curl_getenv(ptr noundef @.str)
  store ptr %20, ptr %14, align 8
  %21 = load ptr, ptr %14, align 8
  %22 = icmp ne ptr %21, null
  br i1 %22, label %23, label %25

23:                                               ; preds = %19
  %24 = load ptr, ptr %14, align 8
  store ptr %24, ptr %13, align 8
  br label %37

25:                                               ; preds = %19
  %26 = call i32 @geteuid() #4
  %27 = getelementptr inbounds [1024 x i8], ptr %12, i64 0, i64 0
  %28 = call i32 @getpwuid_r(i32 noundef %26, ptr noundef %15, ptr noundef %27, i64 noundef 1024, ptr noundef %16)
  %29 = icmp ne i32 %28, 0
  br i1 %29, label %36, label %30

30:                                               ; preds = %25
  %31 = load ptr, ptr %16, align 8
  %32 = icmp ne ptr %31, null
  br i1 %32, label %33, label %36

33:                                               ; preds = %30
  %34 = getelementptr inbounds %struct.passwd, ptr %15, i32 0, i32 5
  %35 = load ptr, ptr %34, align 8
  store ptr %35, ptr %13, align 8
  br label %36

36:                                               ; preds = %33, %30, %25
  br label %37

37:                                               ; preds = %36, %23
  %38 = load ptr, ptr %13, align 8
  %39 = icmp ne ptr %38, null
  br i1 %39, label %42, label %40

40:                                               ; preds = %37
  %41 = load i32, ptr %10, align 4
  store i32 %41, ptr %5, align 4
  br label %68

42:                                               ; preds = %37
  %43 = load ptr, ptr %13, align 8
  %44 = call ptr (ptr, ...) @curl_maprintf(ptr noundef @.str.1, ptr noundef %43, ptr noundef @.str.2)
  store ptr %44, ptr %11, align 8
  %45 = load ptr, ptr %11, align 8
  %46 = icmp ne ptr %45, null
  br i1 %46, label %50, label %47

47:                                               ; preds = %42
  %48 = load ptr, ptr @Curl_cfree, align 8
  %49 = load ptr, ptr %14, align 8
  call void %48(ptr noundef %49)
  store i32 -1, ptr %5, align 4
  br label %68

50:                                               ; preds = %42
  %51 = load ptr, ptr %6, align 8
  %52 = load ptr, ptr %7, align 8
  %53 = load ptr, ptr %8, align 8
  %54 = load ptr, ptr %11, align 8
  %55 = call i32 @parsenetrc(ptr noundef %51, ptr noundef %52, ptr noundef %53, ptr noundef %54)
  store i32 %55, ptr %10, align 4
  %56 = load ptr, ptr @Curl_cfree, align 8
  %57 = load ptr, ptr %11, align 8
  call void %56(ptr noundef %57)
  %58 = load ptr, ptr @Curl_cfree, align 8
  %59 = load ptr, ptr %14, align 8
  call void %58(ptr noundef %59)
  br label %66

60:                                               ; preds = %4
  %61 = load ptr, ptr %6, align 8
  %62 = load ptr, ptr %7, align 8
  %63 = load ptr, ptr %8, align 8
  %64 = load ptr, ptr %9, align 8
  %65 = call i32 @parsenetrc(ptr noundef %61, ptr noundef %62, ptr noundef %63, ptr noundef %64)
  store i32 %65, ptr %10, align 4
  br label %66

66:                                               ; preds = %60, %50
  %67 = load i32, ptr %10, align 4
  store i32 %67, ptr %5, align 4
  br label %68

68:                                               ; preds = %66, %47, %40
  %69 = load i32, ptr %5, align 4
  ret i32 %69
}