; Function Attrs: nounwind uwtable
define dso_local range(i32 -1, 2) i32 @Curl_parsenetrc(ptr noundef %0, ptr noundef captures(none) %1, ptr noundef captures(none) %2, ptr noundef readonly %3) local_unnamed_addr #0 {
  %5 = alloca [1024 x i8], align 16
  %6 = alloca %struct.passwd, align 8
  %7 = alloca ptr, align 8
  %.not = icmp eq ptr %3, null
  br i1 %.not, label %8, label %25

8:                                                ; preds = %4
  %9 = tail call ptr @curl_getenv(ptr noundef nonnull @.str) #4
  %.not25 = icmp eq ptr %9, null
  br i1 %.not25, label %10, label %.thread30

10:                                               ; preds = %8
  %11 = tail call i32 @geteuid() #4
  %12 = call i32 @getpwuid_r(i32 noundef %11, ptr noundef nonnull %6, ptr noundef nonnull %5, i64 noundef 1024, ptr noundef nonnull %7) #4
  %13 = icmp ne i32 %12, 0
  %14 = load ptr, ptr %7, align 8
  %15 = icmp eq ptr %14, null
  %or.cond.not38 = select i1 %13, i1 true, i1 %15
  %16 = getelementptr inbounds nuw i8, ptr %6, i64 32
  %17 = load ptr, ptr %16, align 8
  %.not26 = icmp eq ptr %17, null
  %or.cond35 = select i1 %or.cond.not38, i1 true, i1 %.not26
  br i1 %or.cond35, label %.thread, label %.thread30

.thread30:                                        ; preds = %10, %8
  %.02033 = phi ptr [ %9, %8 ], [ %17, %10 ]
  %18 = call ptr (ptr, ...) @curl_maprintf(ptr noundef nonnull @.str.1, ptr noundef nonnull %.02033, ptr noundef nonnull @.str.2) #4
  %.not27 = icmp eq ptr %18, null
  br i1 %.not27, label %19, label %21

19:                                               ; preds = %.thread30
  %20 = load ptr, ptr @Curl_cfree, align 8
  call void %20(ptr noundef %9) #4
  br label %.thread

21:                                               ; preds = %.thread30
  %22 = call fastcc i32 @parsenetrc(ptr noundef %0, ptr noundef %1, ptr noundef %2, ptr noundef %18)
  %23 = load ptr, ptr @Curl_cfree, align 8
  call void %23(ptr noundef nonnull %18) #4
  %24 = load ptr, ptr @Curl_cfree, align 8
  call void %24(ptr noundef %9) #4
  br label %.thread

25:                                               ; preds = %4
  %26 = tail call fastcc i32 @parsenetrc(ptr noundef %0, ptr noundef %1, ptr noundef %2, ptr noundef %3)
  br label %.thread

.thread:                                          ; preds = %10, %21, %25, %19
  %.0 = phi i32 [ -1, %19 ], [ %26, %25 ], [ %22, %21 ], [ 1, %10 ]
  ret i32 %.0
}